target datalayout = "e-m:e-p270:32:32-p271:32:32-p272:64:64-i64:64-i128:128-f80:128-n8:16:32:64-S128"
target triple = "x86_64-pc-linux-gnu"

%struct.prte_process_info_t = type { %struct.pmix_proc, %struct.pmix_proc, ptr, %struct.pmix_proc, i32, i32, i32, ptr, ptr, i32, i8, ptr, i16, ptr, ptr, i8, ptr, i8 }
%struct.pmix_proc = type { [256 x i8], i32 }
%struct.pmix_mca_base_framework_t = type { ptr, ptr, ptr, ptr, ptr, ptr, i32, i32, ptr, ptr, i32, i32, %struct.pmix_list_t, %struct.pmix_list_t }
%struct.pmix_list_t = type { %struct.pmix_object_t, %struct.pmix_list_item_t, i64 }
%struct.pmix_object_t = type { %union.pthread_mutex_t, ptr, i32, %struct.pmix_tma }
%union.pthread_mutex_t = type { %struct.__pthread_mutex_s }
%struct.__pthread_mutex_s = type { i32, i32, i32, i32, i32, i16, i16, %struct.__pthread_internal_list }
%struct.__pthread_internal_list = type { ptr, ptr }
%struct.pmix_tma = type { ptr, ptr, ptr, ptr, ptr, ptr, ptr, ptr }
%struct.pmix_list_item_t = type { %struct.pmix_object_t, ptr, ptr, i32 }
%struct.pmix_output_desc_t = type { i8, i8, i32, i8, i32, ptr, ptr, i32, ptr, i32, i8, i8, i8, i8, ptr, i32, i32 }
%struct.prte_state_base_module_1_0_0_t = type { ptr, ptr, ptr, ptr, ptr, ptr, ptr, ptr, ptr, ptr }
%struct.pmix_class_t = type { ptr, ptr, ptr, ptr, i32, i32, ptr, ptr, i64 }
%struct.timeval = type { i64, i64 }
%struct.pmix_data_buffer = type { ptr, ptr, ptr, i64, i64 }
%struct.prte_state_caddy_t = type { %struct.pmix_object_t, %struct.event, ptr, i32, %struct.pmix_proc, i32 }
%struct.event = type { %struct.event_callback, %union.anon.0, i32, ptr, %union.anon.2, i16, i16, %struct.timeval }
%struct.event_callback = type { %struct.anon, i16, i8, i8, %union.anon, ptr }
%struct.anon = type { ptr, ptr }
%union.anon = type { ptr }
%union.anon.0 = type { %struct.anon.1 }
%struct.anon.1 = type { ptr, ptr }
%union.anon.2 = type { %struct.anon.3 }
%struct.anon.3 = type { %struct.anon.4, %struct.timeval }
%struct.anon.4 = type { ptr, ptr }
%struct.prte_job_t = type { %struct.pmix_list_item_t, i32, ptr, ptr, [256 x i8], ptr, i32, i32, ptr, ptr, i32, i32, i32, i32, ptr, ptr, ptr, i32, i32, i32, i32, i32, i32, i32, %struct.pmix_proc, i32, i16, %struct.pmix_list_t, %struct.pmix_data_buffer, %struct.pmix_list_t, [256 x i8], i32, ptr, %struct.pmix_cli_result_t }
%struct.pmix_cli_result_t = type { %struct.pmix_object_t, %struct.pmix_list_t, ptr }

@prte_process_info = external global %struct.prte_process_info_t, align 8
@pmix_output_info = external global [0 x %struct.pmix_output_desc_t], align 8
@prte_state_base_framework = external global %struct.pmix_mca_base_framework_t, align 8
@.str.5 = private unnamed_addr constant [42 x i8] c"%s [%f] ACTIVATE JOB %s STATE %s AT %s:%d\00", align 1
@.str.6 = private unnamed_addr constant [5 x i8] c"NULL\00", align 1
@.str.7 = private unnamed_addr constant [31 x i8] c"base/plm_base_launch_support.c\00", align 1
@prte_state = external global %struct.prte_state_base_module_1_0_0_t, align 8
@.str.101 = private unnamed_addr constant [21 x i8] c"pthread_mutex_lock()\00", align 1

; Function Attrs: inlinehint nounwind uwtable
define internal void @pmix_tma_free(ptr noundef %0, ptr noundef %1) #5 {
  %3 = alloca ptr, align 8
  %4 = alloca ptr, align 8
  store ptr %0, ptr %3, align 8, !tbaa !89
  store ptr %1, ptr %4, align 8, !tbaa !3
  %5 = load ptr, ptr %3, align 8, !tbaa !89
  %6 = icmp ne ptr null, %5
  br i1 %6, label %7, label %13

7:                                                ; preds = %2
  %8 = load ptr, ptr %3, align 8, !tbaa !89
  %9 = getelementptr inbounds nuw %struct.pmix_tma, ptr %8, i32 0, i32 5
  %10 = load ptr, ptr %9, align 8, !tbaa !91
  %11 = load ptr, ptr %3, align 8, !tbaa !89
  %12 = load ptr, ptr %4, align 8, !tbaa !3
  call void %10(ptr noundef %11, ptr noundef %12)
  br label %15

13:                                               ; preds = %2
  %14 = load ptr, ptr %4, align 8, !tbaa !3
  call void @free(ptr noundef %14) #13
  br label %15

15:                                               ; preds = %13, %7
  ret void
}

; Function Attrs: inlinehint nounwind uwtable
define internal void @pmix_obj_run_destructors(ptr noundef %0) #5 {
  %2 = alloca ptr, align 8
  %3 = alloca ptr, align 8
  store ptr %0, ptr %2, align 8, !tbaa !80
  call void @llvm.lifetime.start.p0(i64 8, ptr %3) #13
  %4 = load ptr, ptr %2, align 8, !tbaa !80
  %5 = getelementptr inbounds nuw %struct.pmix_object_t, ptr %4, i32 0, i32 1
  %6 = load ptr, ptr %5, align 8, !tbaa !85
  %7 = getelementptr inbounds nuw %struct.pmix_class_t, ptr %6, i32 0, i32 7
  %8 = load ptr, ptr %7, align 8, !tbaa !86
  store ptr %8, ptr %3, align 8, !tbaa !3
  br label %9

9:                                                ; preds = %13, %1
  %10 = load ptr, ptr %3, align 8, !tbaa !3
  %11 = load ptr, ptr %10, align 8, !tbaa !3
  %12 = icmp ne ptr null, %11
  br i1 %12, label %13, label %19

13:                                               ; preds = %9
  %14 = load ptr, ptr %3, align 8, !tbaa !3
  %15 = load ptr, ptr %14, align 8, !tbaa !3
  %16 = load ptr, ptr %2, align 8, !tbaa !80
  call void %15(ptr noundef %16)
  %17 = load ptr, ptr %3, align 8, !tbaa !3
  %18 = getelementptr inbounds nuw ptr, ptr %17, i32 1
  store ptr %18, ptr %3, align 8, !tbaa !3
  br label %9, !llvm.loop !88

19:                                               ; preds = %9
  call void @llvm.lifetime.end.p0(i64 8, ptr %3) #13
  ret void
}

; Function Attrs: alwaysinline nounwind uwtable
define internal i32 @pmix_obj_update(ptr noundef %0, i32 noundef %1) #6 {
  %3 = alloca ptr, align 8
  %4 = alloca i32, align 4
  %5 = alloca i32, align 4
  store ptr %0, ptr %3, align 8, !tbaa !80
  store i32 %1, ptr %4, align 4, !tbaa !29
  call void @llvm.lifetime.start.p0(i64 4, ptr %5) #13
  %6 = load ptr, ptr %3, align 8, !tbaa !80
  %7 = getelementptr inbounds nuw %struct.pmix_object_t, ptr %6, i32 0, i32 0
  %8 = call i32 @pthread_mutex_lock(ptr noundef %7) #13
  store i32 %8, ptr %5, align 4, !tbaa !29
  %9 = load i32, ptr %5, align 4, !tbaa !29
  %10 = icmp eq i32 %9, 35
  br i1 %10, label %11, label %14

11:                                               ; preds = %2
  %12 = load i32, ptr %5, align 4, !tbaa !29
  %13 = call ptr @__errno_location() #14
  store i32 %12, ptr %13, align 4, !tbaa !29
  call void @perror(ptr noundef @.str.101)
  call void @abort() #15
  unreachable

14:                                               ; preds = %2
  %15 = load i32, ptr %4, align 4, !tbaa !29
  %16 = load ptr, ptr %3, align 8, !tbaa !80
  %17 = getelementptr inbounds nuw %struct.pmix_object_t, ptr %16, i32 0, i32 2
  %18 = load i32, ptr %17, align 8, !tbaa !84
  %19 = add nsw i32 %18, %15
  store i32 %19, ptr %17, align 8, !tbaa !84
  store i32 %19, ptr %5, align 4, !tbaa !29
  %20 = load ptr, ptr %3, align 8, !tbaa !80
  %21 = getelementptr inbounds nuw %struct.pmix_object_t, ptr %20, i32 0, i32 0
  %22 = call i32 @pthread_mutex_unlock(ptr noundef %21) #13
  %23 = load i32, ptr %5, align 4, !tbaa !29
  call void @llvm.lifetime.end.p0(i64 4, ptr %5) #13
  ret i32 %23
}

; Function Attrs: inlinehint nounwind uwtable
define internal void @pmix_atomic_rmb() #5 {
  fence acquire
  ret void
}

; Function Attrs: nounwind uwtable
define void @prte_plm_base_mapping_complete(i32 noundef %0, i16 noundef signext %1, ptr noundef %2) #0 {
  %4 = alloca i32, align 4
  %5 = alloca i16, align 2
  %6 = alloca ptr, align 8
  %7 = alloca ptr, align 8
  %8 = alloca ptr, align 8
  %9 = alloca double, align 8
  %10 = alloca %struct.timeval, align 8
  %11 = alloca ptr, align 8
  store i32 %0, ptr %4, align 4, !tbaa !29
  store i16 %1, ptr %5, align 2, !tbaa !30
  store ptr %2, ptr %6, align 8, !tbaa !3
  call void @llvm.lifetime.start.p0(i64 8, ptr %7) #13
  %12 = load ptr, ptr %6, align 8, !tbaa !3
  store ptr %12, ptr %7, align 8, !tbaa !3
  call void @pmix_atomic_rmb()
  %13 = load ptr, ptr %7, align 8, !tbaa !3
  %14 = getelementptr inbounds nuw %struct.prte_state_caddy_t, ptr %13, i32 0, i32 2
  %15 = load ptr, ptr %14, align 8, !tbaa !31
  %16 = getelementptr inbounds nuw %struct.prte_job_t, ptr %15, i32 0, i32 17
  store i32 6, ptr %16, align 8, !tbaa !72
  br label %17

17:                                               ; preds = %3
  call void @llvm.lifetime.start.p0(i64 8, ptr %8) #13
  %18 = load ptr, ptr %7, align 8, !tbaa !3
  %19 = getelementptr inbounds nuw %struct.prte_state_caddy_t, ptr %18, i32 0, i32 2
  %20 = load ptr, ptr %19, align 8, !tbaa !31
  store ptr %20, ptr %8, align 8, !tbaa !3
  %21 = load i32, ptr getelementptr inbounds nuw (%struct.pmix_mca_base_framework_t, ptr @prte_state_base_framework, i32 0, i32 10), align 8, !tbaa !73
  %22 = icmp sgt i32 %21, 0
  br i1 %22, label %23, label %65

23:                                               ; preds = %17
  call void @llvm.lifetime.start.p0(i64 8, ptr %9) #13
  store double 0.000000e+00, ptr %9, align 8, !tbaa !74
  br label %24

24:                                               ; preds = %23
  call void @llvm.lifetime.start.p0(i64 16, ptr %10) #13
  %25 = call i32 @gettimeofday(ptr noundef %10, ptr noundef null) #13
  %26 = getelementptr inbounds nuw %struct.timeval, ptr %10, i32 0, i32 0
  %27 = load i64, ptr %26, align 8, !tbaa !76
  %28 = sitofp i64 %27 to double
  store double %28, ptr %9, align 8, !tbaa !74
  %29 = getelementptr inbounds nuw %struct.timeval, ptr %10, i32 0, i32 1
  %30 = load i64, ptr %29, align 8, !tbaa !77
  %31 = sitofp i64 %30 to double
  %32 = fdiv double %31, 1.000000e+06
  %33 = load double, ptr %9, align 8, !tbaa !74
  %34 = fadd double %33, %32
  store double %34, ptr %9, align 8, !tbaa !74
  call void @llvm.lifetime.end.p0(i64 16, ptr %10) #13
  br label %35

35:                                               ; preds = %24
  br label %36

36:                                               ; preds = %35
  %37 = load i32, ptr getelementptr inbounds nuw (%struct.pmix_mca_base_framework_t, ptr @prte_state_base_framework, i32 0, i32 11), align 4, !tbaa !62
  %38 = icmp sge i32 %37, 0
  br i1 %38, label %39, label %64

39:                                               ; preds = %36
  %40 = load i32, ptr getelementptr inbounds nuw (%struct.pmix_mca_base_framework_t, ptr @prte_state_base_framework, i32 0, i32 11), align 4, !tbaa !62
  %41 = icmp slt i32 %40, 64
  br i1 %41, label %42, label %64

42:                                               ; preds = %39
  %43 = load i32, ptr getelementptr inbounds nuw (%struct.pmix_mca_base_framework_t, ptr @prte_state_base_framework, i32 0, i32 11), align 4, !tbaa !62
  %44 = sext i32 %43 to i64
  %45 = getelementptr inbounds [0 x %struct.pmix_output_desc_t], ptr @pmix_output_info, i64 0, i64 %44
  %46 = getelementptr inbounds nuw %struct.pmix_output_desc_t, ptr %45, i32 0, i32 2
  %47 = load i32, ptr %46, align 4, !tbaa !65
  %48 = icmp sge i32 %47, 1
  br i1 %48, label %49, label %64

49:                                               ; preds = %42
  %50 = load i32, ptr getelementptr inbounds nuw (%struct.pmix_mca_base_framework_t, ptr @prte_state_base_framework, i32 0, i32 11), align 4, !tbaa !62
  %51 = call ptr @prte_util_print_name_args(ptr noundef @prte_process_info)
  %52 = load double, ptr %9, align 8, !tbaa !74
  %53 = load ptr, ptr %8, align 8, !tbaa !3
  %54 = icmp eq ptr null, %53
  br i1 %54, label %55, label %56

55:                                               ; preds = %49
  br label %61

56:                                               ; preds = %49
  %57 = load ptr, ptr %8, align 8, !tbaa !3
  %58 = getelementptr inbounds nuw %struct.prte_job_t, ptr %57, i32 0, i32 4
  %59 = getelementptr inbounds [256 x i8], ptr %58, i64 0, i64 0
  %60 = call ptr @prte_util_print_jobids(ptr noundef %59)
  br label %61

61:                                               ; preds = %56, %55
  %62 = phi ptr [ @.str.6, %55 ], [ %60, %56 ]
  %63 = call ptr @prte_job_state_to_str(i32 noundef 7)
  call void (i32, ptr, ...) @pmix_output(i32 noundef %50, ptr noundef @.str.5, ptr noundef %51, double noundef %52, ptr noundef %62, ptr noundef %63, ptr noundef @.str.7, i32 noundef 274)
  br label %64

64:                                               ; preds = %61, %42, %39, %36
  call void @llvm.lifetime.end.p0(i64 8, ptr %9) #13
  br label %65

65:                                               ; preds = %64, %17
  %66 = load ptr, ptr getelementptr inbounds nuw (%struct.prte_state_base_module_1_0_0_t, ptr @prte_state, i32 0, i32 2), align 8, !tbaa !78
  %67 = load ptr, ptr %8, align 8, !tbaa !3
  call void %66(ptr noundef %67, i32 noundef 7)
  call void @llvm.lifetime.end.p0(i64 8, ptr %8) #13
  br label %68

68:                                               ; preds = %65
  br label %69

69:                                               ; preds = %68
  br label %70

70:                                               ; preds = %69
  call void @llvm.lifetime.start.p0(i64 8, ptr %11) #13
  %71 = load ptr, ptr %7, align 8, !tbaa !3
  store ptr %71, ptr %11, align 8, !tbaa !80
  %72 = load ptr, ptr %11, align 8, !tbaa !80
  %73 = call i32 @pmix_obj_update(ptr noundef %72, i32 noundef -1)
  %74 = icmp eq i32 0, %73
  br i1 %74, label %75, label %89

75:                                               ; preds = %70
  %76 = load ptr, ptr %11, align 8, !tbaa !80
  call void @pmix_obj_run_destructors(ptr noundef %76)
  %77 = load ptr, ptr %11, align 8, !tbaa !80
  %78 = getelementptr inbounds nuw %struct.pmix_object_t, ptr %77, i32 0, i32 3
  %79 = getelementptr inbounds nuw %struct.pmix_tma, ptr %78, i32 0, i32 5
  %80 = load ptr, ptr %79, align 8, !tbaa !82
  %81 = icmp ne ptr null, %80
  br i1 %81, label %82, label %86

82:                                               ; preds = %75
  %83 = load ptr, ptr %11, align 8, !tbaa !80
  %84 = getelementptr inbounds nuw %struct.pmix_object_t, ptr %83, i32 0, i32 3
  %85 = load ptr, ptr %7, align 8, !tbaa !3
  call void @pmix_tma_free(ptr noundef %84, ptr noundef %85)
  br label %88

86:                                               ; preds = %75
  %87 = load ptr, ptr %7, align 8, !tbaa !3
  call void @free(ptr noundef %87) #13
  br label %88

88:                                               ; preds = %86, %82
  store ptr null, ptr %7, align 8, !tbaa !3
  br label %89

89:                                               ; preds = %88, %70
  call void @llvm.lifetime.end.p0(i64 8, ptr %11) #13
  br label %90

90:                                               ; preds = %89
  br label %91

91:                                               ; preds = %90
  call void @llvm.lifetime.end.p0(i64 8, ptr %7) #13
  ret void
}