; Function Attrs: nounwind uwtable
define void @prte_plm_base_mapping_complete(i32 noundef %0, i16 noundef signext %1, ptr noundef %2) local_unnamed_addr #0 {
  %4 = alloca %struct.timeval, align 8
  fence acquire
  %5 = getelementptr inbounds nuw i8, ptr %2, i64 248
  %6 = load ptr, ptr %5, align 8, !tbaa !28
  %7 = getelementptr inbounds nuw i8, ptr %6, i64 496
  store i32 6, ptr %7, align 8, !tbaa !71
  %8 = load i32, ptr getelementptr inbounds nuw (i8, ptr @prte_state_base_framework, i64 72), align 8, !tbaa !72
  %9 = icmp sgt i32 %8, 0
  br i1 %9, label %10, label %30

10:                                               ; preds = %3
  call void @llvm.lifetime.start.p0(i64 16, ptr nonnull %4) #17
  %11 = call i32 @gettimeofday(ptr noundef nonnull %4, ptr noundef null) #17
  %12 = load i64, ptr %4, align 8, !tbaa !73
  %13 = sitofp i64 %12 to double
  %14 = getelementptr inbounds nuw i8, ptr %4, i64 8
  %15 = load i64, ptr %14, align 8, !tbaa !74
  %16 = sitofp i64 %15 to double
  %17 = fdiv double %16, 1.000000e+06
  %18 = fadd double %17, %13
  call void @llvm.lifetime.end.p0(i64 16, ptr nonnull %4) #17
  %19 = load i32, ptr getelementptr inbounds nuw (i8, ptr @prte_state_base_framework, i64 76), align 4, !tbaa !61
  %or.cond = icmp ult i32 %19, 64
  br i1 %or.cond, label %20, label %30

20:                                               ; preds = %10
  %21 = zext nneg i32 %19 to i64
  %22 = getelementptr inbounds nuw [0 x %struct.pmix_output_desc_t], ptr @pmix_output_info, i64 0, i64 %21, i32 2
  %23 = load i32, ptr %22, align 4, !tbaa !64
  %24 = icmp sgt i32 %23, 0
  br i1 %24, label %25, label %30

25:                                               ; preds = %20
  %26 = tail call ptr @prte_util_print_name_args(ptr noundef nonnull @prte_process_info) #17
  %27 = getelementptr inbounds nuw i8, ptr %6, i64 168
  %28 = tail call ptr @prte_util_print_jobids(ptr noundef nonnull %27) #17
  %29 = tail call ptr @prte_job_state_to_str(i32 noundef 7) #17
  tail call void (i32, ptr, ...) @pmix_output(i32 noundef %19, ptr noundef nonnull @.str.5, ptr noundef %26, double noundef %18, ptr noundef %28, ptr noundef %29, ptr noundef nonnull @.str.7, i32 noundef 274) #17
  br label %30

30:                                               ; preds = %10, %20, %25, %3
  %31 = load ptr, ptr getelementptr inbounds nuw (i8, ptr @prte_state, i64 16), align 8, !tbaa !75
  tail call void %31(ptr noundef nonnull %6, i32 noundef 7) #17
  %32 = tail call i32 @pthread_mutex_lock(ptr noundef nonnull %2) #17
  %33 = icmp eq i32 %32, 35
  br i1 %33, label %34, label %pmix_obj_update.exit

34:                                               ; preds = %30
  %35 = tail call ptr @__errno_location() #18
  store i32 35, ptr %35, align 4, !tbaa !77
  tail call void @perror(ptr noundef nonnull @.str.101) #19
  tail call void @abort() #20
  unreachable

pmix_obj_update.exit:                             ; preds = %30
  %36 = getelementptr inbounds nuw i8, ptr %2, i64 48
  %37 = load i32, ptr %36, align 8, !tbaa !78
  %38 = add nsw i32 %37, -1
  store i32 %38, ptr %36, align 8, !tbaa !78
  %39 = tail call i32 @pthread_mutex_unlock(ptr noundef nonnull %2) #17
  %40 = icmp eq i32 %38, 0
  br i1 %40, label %41, label %55

41:                                               ; preds = %pmix_obj_update.exit
  %42 = getelementptr inbounds nuw i8, ptr %2, i64 40
  %43 = load ptr, ptr %42, align 8, !tbaa !79
  %44 = getelementptr inbounds nuw i8, ptr %43, i64 48
  %45 = load ptr, ptr %44, align 8, !tbaa !80
  %46 = load ptr, ptr %45, align 8, !tbaa !43
  %.not6.i = icmp eq ptr %46, null
  br i1 %.not6.i, label %pmix_obj_run_destructors.exit, label %.lr.ph.i

.lr.ph.i:                                         ; preds = %41, %.lr.ph.i
  %47 = phi ptr [ %49, %.lr.ph.i ], [ %46, %41 ]
  %.07.i = phi ptr [ %48, %.lr.ph.i ], [ %45, %41 ]
  tail call void %47(ptr noundef nonnull %2) #17
  %48 = getelementptr inbounds nuw i8, ptr %.07.i, i64 8
  %49 = load ptr, ptr %48, align 8, !tbaa !43
  %.not.i = icmp eq ptr %49, null
  br i1 %.not.i, label %pmix_obj_run_destructors.exit, label %.lr.ph.i, !llvm.loop !82

pmix_obj_run_destructors.exit:                    ; preds = %.lr.ph.i, %41
  %50 = getelementptr inbounds nuw i8, ptr %2, i64 96
  %51 = load ptr, ptr %50, align 8, !tbaa !83
  %.not = icmp eq ptr %51, null
  br i1 %.not, label %54, label %52

52:                                               ; preds = %pmix_obj_run_destructors.exit
  %53 = getelementptr inbounds nuw i8, ptr %2, i64 56
  tail call void %51(ptr noundef nonnull %53, ptr noundef nonnull %2) #17
  br label %55

54:                                               ; preds = %pmix_obj_run_destructors.exit
  tail call void @free(ptr noundef nonnull %2) #17
  br label %55

55:                                               ; preds = %52, %54, %pmix_obj_update.exit
  ret void
}